	.text
	.file	"rtti.36b6635a011dbd92-cgu.0"
	.section	.text._ZN3std10sys_common9backtrace28__rust_begin_short_backtrace17h6eefcbc7c6e6d3aeE,"ax",@progbits
	.p2align	4, 0x90
	.type	_ZN3std10sys_common9backtrace28__rust_begin_short_backtrace17h6eefcbc7c6e6d3aeE,@function
_ZN3std10sys_common9backtrace28__rust_begin_short_backtrace17h6eefcbc7c6e6d3aeE:
	.cfi_startproc
	pushq	%rax
	.cfi_def_cfa_offset 16
	callq	*%rdi
	#APP
	#NO_APP
	popq	%rax
	.cfi_def_cfa_offset 8
	retq
.Lfunc_end0:
	.size	_ZN3std10sys_common9backtrace28__rust_begin_short_backtrace17h6eefcbc7c6e6d3aeE, .Lfunc_end0-_ZN3std10sys_common9backtrace28__rust_begin_short_backtrace17h6eefcbc7c6e6d3aeE
	.cfi_endproc

	.section	.text._ZN3std2rt10lang_start17h52cb47acc9d6964fE,"ax",@progbits
	.hidden	_ZN3std2rt10lang_start17h52cb47acc9d6964fE
	.globl	_ZN3std2rt10lang_start17h52cb47acc9d6964fE
	.p2align	4, 0x90
	.type	_ZN3std2rt10lang_start17h52cb47acc9d6964fE,@function
_ZN3std2rt10lang_start17h52cb47acc9d6964fE:
	.cfi_startproc
	pushq	%rax
	.cfi_def_cfa_offset 16
	movl	%ecx, %r8d
	movq	%rdx, %rcx
	movq	%rsi, %rdx
	movq	%rdi, (%rsp)
	leaq	.L__unnamed_1(%rip), %rsi
	movq	%rsp, %rdi
	callq	*_ZN3std2rt19lang_start_internal17hb24d5b3b39de15bbE@GOTPCREL(%rip)
	popq	%rcx
	.cfi_def_cfa_offset 8
	retq
.Lfunc_end1:
	.size	_ZN3std2rt10lang_start17h52cb47acc9d6964fE, .Lfunc_end1-_ZN3std2rt10lang_start17h52cb47acc9d6964fE
	.cfi_endproc

	.section	".text._ZN3std2rt10lang_start28_$u7b$$u7b$closure$u7d$$u7d$17he52e19aa637a2b4dE","ax",@progbits
	.p2align	4, 0x90
	.type	_ZN3std2rt10lang_start28_$u7b$$u7b$closure$u7d$$u7d$17he52e19aa637a2b4dE,@function
_ZN3std2rt10lang_start28_$u7b$$u7b$closure$u7d$$u7d$17he52e19aa637a2b4dE:
	.cfi_startproc
	pushq	%rax
	.cfi_def_cfa_offset 16
	movq	(%rdi), %rdi
	callq	_ZN3std10sys_common9backtrace28__rust_begin_short_backtrace17h6eefcbc7c6e6d3aeE
	xorl	%eax, %eax
	popq	%rcx
	.cfi_def_cfa_offset 8
	retq
.Lfunc_end2:
	.size	_ZN3std2rt10lang_start28_$u7b$$u7b$closure$u7d$$u7d$17he52e19aa637a2b4dE, .Lfunc_end2-_ZN3std2rt10lang_start28_$u7b$$u7b$closure$u7d$$u7d$17he52e19aa637a2b4dE
	.cfi_endproc

	.section	".text._ZN4core3ops8function6FnOnce40call_once$u7b$$u7b$vtable.shim$u7d$$u7d$17hca22f9208485f70dE","ax",@progbits
	.p2align	4, 0x90
	.type	_ZN4core3ops8function6FnOnce40call_once$u7b$$u7b$vtable.shim$u7d$$u7d$17hca22f9208485f70dE,@function
_ZN4core3ops8function6FnOnce40call_once$u7b$$u7b$vtable.shim$u7d$$u7d$17hca22f9208485f70dE:
	.cfi_startproc
	pushq	%rax
	.cfi_def_cfa_offset 16
	movq	(%rdi), %rdi
	callq	_ZN3std10sys_common9backtrace28__rust_begin_short_backtrace17h6eefcbc7c6e6d3aeE
	xorl	%eax, %eax
	popq	%rcx
	.cfi_def_cfa_offset 8
	retq
.Lfunc_end3:
	.size	_ZN4core3ops8function6FnOnce40call_once$u7b$$u7b$vtable.shim$u7d$$u7d$17hca22f9208485f70dE, .Lfunc_end3-_ZN4core3ops8function6FnOnce40call_once$u7b$$u7b$vtable.shim$u7d$$u7d$17hca22f9208485f70dE
	.cfi_endproc

	.section	".text._ZN4core3ptr85drop_in_place$LT$std..rt..lang_start$LT$$LP$$RP$$GT$..$u7b$$u7b$closure$u7d$$u7d$$GT$17h13c3244df6960557E","ax",@progbits
	.p2align	4, 0x90
	.type	_ZN4core3ptr85drop_in_place$LT$std..rt..lang_start$LT$$LP$$RP$$GT$..$u7b$$u7b$closure$u7d$$u7d$$GT$17h13c3244df6960557E,@function
_ZN4core3ptr85drop_in_place$LT$std..rt..lang_start$LT$$LP$$RP$$GT$..$u7b$$u7b$closure$u7d$$u7d$$GT$17h13c3244df6960557E:
	.cfi_startproc
	retq
.Lfunc_end4:
	.size	_ZN4core3ptr85drop_in_place$LT$std..rt..lang_start$LT$$LP$$RP$$GT$..$u7b$$u7b$closure$u7d$$u7d$$GT$17h13c3244df6960557E, .Lfunc_end4-_ZN4core3ptr85drop_in_place$LT$std..rt..lang_start$LT$$LP$$RP$$GT$..$u7b$$u7b$closure$u7d$$u7d$$GT$17h13c3244df6960557E
	.cfi_endproc

	.section	.text._ZN4rtti4main17h107073893acdb818E,"ax",@progbits
	.p2align	4, 0x90
	.type	_ZN4rtti4main17h107073893acdb818E,@function
_ZN4rtti4main17h107073893acdb818E:
	.cfi_startproc
	pushq	%rbp
	.cfi_def_cfa_offset 16
	pushq	%r14
	.cfi_def_cfa_offset 24
	pushq	%rbx
	.cfi_def_cfa_offset 32
	subq	$112, %rsp
	.cfi_def_cfa_offset 144
	.cfi_offset %rbx, -32
	.cfi_offset %r14, -24
	.cfi_offset %rbp, -16
	movq	$0, 8(%rsp)
	movl	$10000, %ebp
	leaq	8(%rsp), %rbx
	.p2align	4, 0x90
.LBB5_1:
	movq	%rbx, %rdi
	callq	benchmark
	decl	%ebp
	jne	.LBB5_1
	callq	*_ZN3std4time7Instant3now17h3ab2a7cd60f5c18fE@GOTPCREL(%rip)
	movq	%rax, 80(%rsp)
	movl	%edx, 88(%rsp)
	movl	$10000, %ebp
	leaq	8(%rsp), %rbx
	.p2align	4, 0x90
.LBB5_3:
	movq	%rbx, %rdi
	callq	benchmark
	decl	%ebp
	jne	.LBB5_3
	leaq	80(%rsp), %rdi
	callq	*_ZN3std4time7Instant7elapsed17hea5d292cb7dee77cE@GOTPCREL(%rip)
	movq	%rax, 96(%rsp)
	movl	%edx, 104(%rsp)
	movq	%rbx, 16(%rsp)
	movq	_ZN4core3fmt3num3imp54_$LT$impl$u20$core..fmt..Display$u20$for$u20$usize$GT$3fmt17hc5546d3d9a19d1bcE@GOTPCREL(%rip), %rax
	movq	%rax, 24(%rsp)
	leaq	.L__unnamed_2(%rip), %rax
	movq	%rax, 32(%rsp)
	movq	$2, 40(%rsp)
	movq	$0, 64(%rsp)
	leaq	16(%rsp), %rbx
	movq	%rbx, 48(%rsp)
	movq	$1, 56(%rsp)
	movq	_ZN3std2io5stdio6_print17h5678da0235e4eeb6E@GOTPCREL(%rip), %r14
	leaq	32(%rsp), %rdi
	callq	*%r14
	leaq	96(%rsp), %rax
	movq	%rax, 16(%rsp)
	movq	_ZN57_$LT$core..time..Duration$u20$as$u20$core..fmt..Debug$GT$3fmt17hb7bf4f9d24e88f51E@GOTPCREL(%rip), %rax
	movq	%rax, 24(%rsp)
	leaq	.L__unnamed_3(%rip), %rax
	movq	%rax, 32(%rsp)
	movq	$2, 40(%rsp)
	movq	$0, 64(%rsp)
	movq	%rbx, 48(%rsp)
	movq	$1, 56(%rsp)
	leaq	32(%rsp), %rdi
	callq	*%r14
	addq	$112, %rsp
	.cfi_def_cfa_offset 32
	popq	%rbx
	.cfi_def_cfa_offset 24
	popq	%r14
	.cfi_def_cfa_offset 16
	popq	%rbp
	.cfi_def_cfa_offset 8
	retq
.Lfunc_end5:
	.size	_ZN4rtti4main17h107073893acdb818E, .Lfunc_end5-_ZN4rtti4main17h107073893acdb818E
	.cfi_endproc

	.section	.text.benchmark,"ax",@progbits
	.globl	benchmark
	.p2align	4, 0x90
	.type	benchmark,@function
benchmark:
	.cfi_startproc
	subq	$680, %rsp
	.cfi_def_cfa_offset 688
	xorps	%xmm0, %xmm0
	movaps	%xmm0, -112(%rsp)
	movq	$1, -96(%rsp)
	movq	$1, -88(%rsp)
	movq	$1, -80(%rsp)
	movq	$2, -72(%rsp)
	movq	$2, -64(%rsp)
	movq	$2, -56(%rsp)
	movq	$3, -48(%rsp)
	movq	$3, -40(%rsp)
	movq	$3, -32(%rsp)
	movq	$4, -24(%rsp)
	movq	$4, -16(%rsp)
	movq	$4, -8(%rsp)
	movq	$5, (%rsp)
	movq	$5, 8(%rsp)
	movq	$5, 16(%rsp)
	movq	$6, 24(%rsp)
	movq	$6, 32(%rsp)
	movq	$6, 40(%rsp)
	movq	$7, 48(%rsp)
	movq	$7, 56(%rsp)
	movq	$7, 64(%rsp)
	movq	$8, 72(%rsp)
	movq	$8, 80(%rsp)
	movq	$8, 88(%rsp)
	movq	$9, 96(%rsp)
	movq	$9, 104(%rsp)
	movq	$9, 112(%rsp)
	movq	$10, 120(%rsp)
	movq	$10, 128(%rsp)
	movq	$10, 136(%rsp)
	movq	$11, 144(%rsp)
	movq	$11, 152(%rsp)
	movq	$11, 160(%rsp)
	movq	$12, 168(%rsp)
	movq	$12, 176(%rsp)
	movq	$12, 184(%rsp)
	movq	$13, 192(%rsp)
	movq	$13, 200(%rsp)
	movq	$13, 208(%rsp)
	movq	$14, 216(%rsp)
	movq	$14, 224(%rsp)
	movq	$14, 232(%rsp)
	movq	$15, 240(%rsp)
	movq	$15, 248(%rsp)
	movq	$15, 256(%rsp)
	movq	$16, 264(%rsp)
	movq	$16, 272(%rsp)
	movq	$16, 280(%rsp)
	movq	$17, 288(%rsp)
	movq	$17, 296(%rsp)
	movq	$17, 304(%rsp)
	movq	$18, 312(%rsp)
	movq	$18, 320(%rsp)
	movq	$18, 328(%rsp)
	movq	$19, 336(%rsp)
	movq	$19, 344(%rsp)
	movq	$19, 352(%rsp)
	movq	$20, 360(%rsp)
	movq	$20, 368(%rsp)
	movq	$20, 376(%rsp)
	movq	$21, 384(%rsp)
	movq	$21, 392(%rsp)
	movq	$21, 400(%rsp)
	movq	$22, 408(%rsp)
	movq	$22, 416(%rsp)
	movq	$22, 424(%rsp)
	movq	$23, 432(%rsp)
	movq	$23, 440(%rsp)
	movq	$23, 448(%rsp)
	movq	$24, 456(%rsp)
	movq	$24, 464(%rsp)
	movq	$24, 472(%rsp)
	movq	$25, 480(%rsp)
	movq	$25, 488(%rsp)
	movq	$25, 496(%rsp)
	movq	$26, 504(%rsp)
	movq	$26, 512(%rsp)
	movq	$26, 520(%rsp)
	movq	$27, 528(%rsp)
	movq	$27, 536(%rsp)
	movq	$27, 544(%rsp)
	movq	$28, 552(%rsp)
	movq	$28, 560(%rsp)
	movq	$28, 568(%rsp)
	movq	$29, 576(%rsp)
	movq	$29, 584(%rsp)
	movq	$29, 592(%rsp)
	movq	$30, 600(%rsp)
	movq	$30, 608(%rsp)
	movq	$30, 616(%rsp)
	movq	$31, 624(%rsp)
	movq	$31, 632(%rsp)
	movq	$31, 640(%rsp)
	movq	$32, 648(%rsp)
	movq	$32, 664(%rsp)
	xorl	%ecx, %ecx
	leaq	.LJTI6_0(%rip), %rax
	jmp	.LBB6_1
.LBB6_24:
	movq	%rcx, -120(%rsp)
	leaq	-120(%rsp), %rcx
	#APP
	#NO_APP
	movq	-120(%rsp), %rcx
	movq	%rdx, -120(%rsp)
	leaq	-120(%rsp), %rdx
	#APP
	#NO_APP
	.p2align	4, 0x90
.LBB6_34:
	addq	-120(%rsp), %rcx
	movq	%rcx, (%rdi)
	movq	656(%rsp), %rcx
	cmpq	%rcx, 664(%rsp)
	je	.LBB6_35
.LBB6_1:
	leaq	1(%rcx), %rdx
	movq	%rdx, 656(%rsp)
	leaq	(%rcx,%rcx,2), %rdx
	movq	-112(%rsp,%rdx,8), %rsi
	movq	-104(%rsp,%rdx,8), %rcx
	movq	-96(%rsp,%rdx,8), %rdx
	movslq	(%rax,%rsi,4), %rsi
	addq	%rax, %rsi
	jmpq	*%rsi
.LBB6_2:
	movq	%rcx, -120(%rsp)
	leaq	-120(%rsp), %rcx
	#APP
	#NO_APP
	movq	-120(%rsp), %rcx
	movq	%rdx, -120(%rsp)
	leaq	-120(%rsp), %rdx
	#APP
	#NO_APP
	jmp	.LBB6_34
.LBB6_20:
	movq	%rcx, -120(%rsp)
	leaq	-120(%rsp), %rcx
	#APP
	#NO_APP
	movq	-120(%rsp), %rcx
	movq	%rdx, -120(%rsp)
	leaq	-120(%rsp), %rdx
	#APP
	#NO_APP
	jmp	.LBB6_34
.LBB6_15:
	movq	%rcx, -120(%rsp)
	leaq	-120(%rsp), %rcx
	#APP
	#NO_APP
	movq	-120(%rsp), %rcx
	movq	%rdx, -120(%rsp)
	leaq	-120(%rsp), %rdx
	#APP
	#NO_APP
	jmp	.LBB6_34
.LBB6_12:
	movq	%rcx, -120(%rsp)
	leaq	-120(%rsp), %rcx
	#APP
	#NO_APP
	movq	-120(%rsp), %rcx
	movq	%rdx, -120(%rsp)
	leaq	-120(%rsp), %rdx
	#APP
	#NO_APP
	jmp	.LBB6_34
.LBB6_11:
	movq	%rcx, -120(%rsp)
	leaq	-120(%rsp), %rcx
	#APP
	#NO_APP
	movq	-120(%rsp), %rcx
	movq	%rdx, -120(%rsp)
	leaq	-120(%rsp), %rdx
	#APP
	#NO_APP
	jmp	.LBB6_34
.LBB6_26:
	movq	%rcx, -120(%rsp)
	leaq	-120(%rsp), %rcx
	#APP
	#NO_APP
	movq	-120(%rsp), %rcx
	movq	%rdx, -120(%rsp)
	leaq	-120(%rsp), %rdx
	#APP
	#NO_APP
	jmp	.LBB6_34
.LBB6_22:
	movq	%rcx, -120(%rsp)
	leaq	-120(%rsp), %rcx
	#APP
	#NO_APP
	movq	-120(%rsp), %rcx
	movq	%rdx, -120(%rsp)
	leaq	-120(%rsp), %rdx
	#APP
	#NO_APP
	jmp	.LBB6_34
.LBB6_5:
	movq	%rcx, -120(%rsp)
	leaq	-120(%rsp), %rcx
	#APP
	#NO_APP
	movq	-120(%rsp), %rcx
	movq	%rdx, -120(%rsp)
	leaq	-120(%rsp), %rdx
	#APP
	#NO_APP
	jmp	.LBB6_34
.LBB6_25:
	movq	%rcx, -120(%rsp)
	leaq	-120(%rsp), %rcx
	#APP
	#NO_APP
	movq	-120(%rsp), %rcx
	movq	%rdx, -120(%rsp)
	leaq	-120(%rsp), %rdx
	#APP
	#NO_APP
	jmp	.LBB6_34
.LBB6_29:
	movq	%rcx, -120(%rsp)
	leaq	-120(%rsp), %rcx
	#APP
	#NO_APP
	movq	-120(%rsp), %rcx
	movq	%rdx, -120(%rsp)
	leaq	-120(%rsp), %rdx
	#APP
	#NO_APP
	jmp	.LBB6_34
.LBB6_3:
	movq	%rcx, -120(%rsp)
	leaq	-120(%rsp), %rcx
	#APP
	#NO_APP
	movq	-120(%rsp), %rcx
	movq	%rdx, -120(%rsp)
	leaq	-120(%rsp), %rdx
	#APP
	#NO_APP
	jmp	.LBB6_34
.LBB6_19:
	movq	%rcx, -120(%rsp)
	leaq	-120(%rsp), %rcx
	#APP
	#NO_APP
	movq	-120(%rsp), %rcx
	movq	%rdx, -120(%rsp)
	leaq	-120(%rsp), %rdx
	#APP
	#NO_APP
	jmp	.LBB6_34
.LBB6_9:
	movq	%rcx, -120(%rsp)
	leaq	-120(%rsp), %rcx
	#APP
	#NO_APP
	movq	-120(%rsp), %rcx
	movq	%rdx, -120(%rsp)
	leaq	-120(%rsp), %rdx
	#APP
	#NO_APP
	jmp	.LBB6_34
.LBB6_7:
	movq	%rcx, -120(%rsp)
	leaq	-120(%rsp), %rcx
	#APP
	#NO_APP
	movq	-120(%rsp), %rcx
	movq	%rdx, -120(%rsp)
	leaq	-120(%rsp), %rdx
	#APP
	#NO_APP
	jmp	.LBB6_34
.LBB6_32:
	movq	%rcx, -120(%rsp)
	leaq	-120(%rsp), %rcx
	#APP
	#NO_APP
	movq	-120(%rsp), %rcx
	movq	%rdx, -120(%rsp)
	leaq	-120(%rsp), %rdx
	#APP
	#NO_APP
	jmp	.LBB6_34
.LBB6_8:
	movq	%rcx, -120(%rsp)
	leaq	-120(%rsp), %rcx
	#APP
	#NO_APP
	movq	-120(%rsp), %rcx
	movq	%rdx, -120(%rsp)
	leaq	-120(%rsp), %rdx
	#APP
	#NO_APP
	jmp	.LBB6_34
.LBB6_27:
	movq	%rcx, -120(%rsp)
	leaq	-120(%rsp), %rcx
	#APP
	#NO_APP
	movq	-120(%rsp), %rcx
	movq	%rdx, -120(%rsp)
	leaq	-120(%rsp), %rdx
	#APP
	#NO_APP
	jmp	.LBB6_34
.LBB6_4:
	movq	%rcx, -120(%rsp)
	leaq	-120(%rsp), %rcx
	#APP
	#NO_APP
	movq	-120(%rsp), %rcx
	movq	%rdx, -120(%rsp)
	leaq	-120(%rsp), %rdx
	#APP
	#NO_APP
	jmp	.LBB6_34
.LBB6_14:
	movq	%rcx, -120(%rsp)
	leaq	-120(%rsp), %rcx
	#APP
	#NO_APP
	movq	-120(%rsp), %rcx
	movq	%rdx, -120(%rsp)
	leaq	-120(%rsp), %rdx
	#APP
	#NO_APP
	jmp	.LBB6_34
.LBB6_10:
	movq	%rcx, -120(%rsp)
	leaq	-120(%rsp), %rcx
	#APP
	#NO_APP
	movq	-120(%rsp), %rcx
	movq	%rdx, -120(%rsp)
	leaq	-120(%rsp), %rdx
	#APP
	#NO_APP
	jmp	.LBB6_34
.LBB6_21:
	movq	%rcx, -120(%rsp)
	leaq	-120(%rsp), %rcx
	#APP
	#NO_APP
	movq	-120(%rsp), %rcx
	movq	%rdx, -120(%rsp)
	leaq	-120(%rsp), %rdx
	#APP
	#NO_APP
	jmp	.LBB6_34
.LBB6_33:
	movq	%rcx, -120(%rsp)
	leaq	-120(%rsp), %rcx
	#APP
	#NO_APP
	movq	-120(%rsp), %rcx
	movq	%rdx, -120(%rsp)
	leaq	-120(%rsp), %rdx
	#APP
	#NO_APP
	jmp	.LBB6_34
.LBB6_6:
	movq	%rcx, -120(%rsp)
	leaq	-120(%rsp), %rcx
	#APP
	#NO_APP
	movq	-120(%rsp), %rcx
	movq	%rdx, -120(%rsp)
	leaq	-120(%rsp), %rdx
	#APP
	#NO_APP
	jmp	.LBB6_34
.LBB6_13:
	movq	%rcx, -120(%rsp)
	leaq	-120(%rsp), %rcx
	#APP
	#NO_APP
	movq	-120(%rsp), %rcx
	movq	%rdx, -120(%rsp)
	leaq	-120(%rsp), %rdx
	#APP
	#NO_APP
	jmp	.LBB6_34
.LBB6_17:
	movq	%rcx, -120(%rsp)
	leaq	-120(%rsp), %rcx
	#APP
	#NO_APP
	movq	-120(%rsp), %rcx
	movq	%rdx, -120(%rsp)
	leaq	-120(%rsp), %rdx
	#APP
	#NO_APP
	jmp	.LBB6_34
.LBB6_16:
	movq	%rcx, -120(%rsp)
	leaq	-120(%rsp), %rcx
	#APP
	#NO_APP
	movq	-120(%rsp), %rcx
	movq	%rdx, -120(%rsp)
	leaq	-120(%rsp), %rdx
	#APP
	#NO_APP
	jmp	.LBB6_34
.LBB6_18:
	movq	%rcx, -120(%rsp)
	leaq	-120(%rsp), %rcx
	#APP
	#NO_APP
	movq	-120(%rsp), %rcx
	movq	%rdx, -120(%rsp)
	leaq	-120(%rsp), %rdx
	#APP
	#NO_APP
	jmp	.LBB6_34
.LBB6_28:
	movq	%rcx, -120(%rsp)
	leaq	-120(%rsp), %rcx
	#APP
	#NO_APP
	movq	-120(%rsp), %rcx
	movq	%rdx, -120(%rsp)
	leaq	-120(%rsp), %rdx
	#APP
	#NO_APP
	jmp	.LBB6_34
.LBB6_23:
	movq	%rcx, -120(%rsp)
	leaq	-120(%rsp), %rcx
	#APP
	#NO_APP
	movq	-120(%rsp), %rcx
	movq	%rdx, -120(%rsp)
	leaq	-120(%rsp), %rdx
	#APP
	#NO_APP
	jmp	.LBB6_34
.LBB6_30:
	movq	%rcx, -120(%rsp)
	leaq	-120(%rsp), %rcx
	#APP
	#NO_APP
	movq	-120(%rsp), %rcx
	movq	%rdx, -120(%rsp)
	leaq	-120(%rsp), %rdx
	#APP
	#NO_APP
	jmp	.LBB6_34
.LBB6_31:
	movq	%rcx, -120(%rsp)
	leaq	-120(%rsp), %rcx
	#APP
	#NO_APP
	movq	-120(%rsp), %rcx
	movq	%rdx, -120(%rsp)
	leaq	-120(%rsp), %rdx
	#APP
	#NO_APP
	jmp	.LBB6_34
.LBB6_35:
	addq	$680, %rsp
	.cfi_def_cfa_offset 8
	retq
.Lfunc_end6:
	.size	benchmark, .Lfunc_end6-benchmark
	.cfi_endproc
	.section	.rodata.benchmark,"a",@progbits
	.p2align	2, 0x0
.LJTI6_0:
	.long	.LBB6_2-.LJTI6_0
	.long	.LBB6_3-.LJTI6_0
	.long	.LBB6_4-.LJTI6_0
	.long	.LBB6_5-.LJTI6_0
	.long	.LBB6_6-.LJTI6_0
	.long	.LBB6_7-.LJTI6_0
	.long	.LBB6_8-.LJTI6_0
	.long	.LBB6_9-.LJTI6_0
	.long	.LBB6_10-.LJTI6_0
	.long	.LBB6_11-.LJTI6_0
	.long	.LBB6_12-.LJTI6_0
	.long	.LBB6_13-.LJTI6_0
	.long	.LBB6_14-.LJTI6_0
	.long	.LBB6_15-.LJTI6_0
	.long	.LBB6_16-.LJTI6_0
	.long	.LBB6_17-.LJTI6_0
	.long	.LBB6_18-.LJTI6_0
	.long	.LBB6_19-.LJTI6_0
	.long	.LBB6_20-.LJTI6_0
	.long	.LBB6_21-.LJTI6_0
	.long	.LBB6_22-.LJTI6_0
	.long	.LBB6_23-.LJTI6_0
	.long	.LBB6_24-.LJTI6_0
	.long	.LBB6_25-.LJTI6_0
	.long	.LBB6_26-.LJTI6_0
	.long	.LBB6_27-.LJTI6_0
	.long	.LBB6_28-.LJTI6_0
	.long	.LBB6_29-.LJTI6_0
	.long	.LBB6_30-.LJTI6_0
	.long	.LBB6_31-.LJTI6_0
	.long	.LBB6_32-.LJTI6_0
	.long	.LBB6_33-.LJTI6_0
	.long	.LBB6_35-.LJTI6_0

	.section	.text.main,"ax",@progbits
	.globl	main
	.p2align	4, 0x90
	.type	main,@function
main:
	.cfi_startproc
	pushq	%rax
	.cfi_def_cfa_offset 16
	movq	%rsi, %rcx
	movslq	%edi, %rdx
	leaq	_ZN4rtti4main17h107073893acdb818E(%rip), %rax
	movq	%rax, (%rsp)
	leaq	.L__unnamed_1(%rip), %rsi
	movq	%rsp, %rdi
	xorl	%r8d, %r8d
	callq	*_ZN3std2rt19lang_start_internal17hb24d5b3b39de15bbE@GOTPCREL(%rip)
	popq	%rcx
	.cfi_def_cfa_offset 8
	retq
.Lfunc_end7:
	.size	main, .Lfunc_end7-main
	.cfi_endproc

	.type	.L__unnamed_1,@object
	.section	.data.rel.ro..L__unnamed_1,"aw",@progbits
	.p2align	3, 0x0
.L__unnamed_1:
	.quad	_ZN4core3ptr85drop_in_place$LT$std..rt..lang_start$LT$$LP$$RP$$GT$..$u7b$$u7b$closure$u7d$$u7d$$GT$17h13c3244df6960557E
	.asciz	"\b\000\000\000\000\000\000\000\b\000\000\000\000\000\000"
	.quad	_ZN4core3ops8function6FnOnce40call_once$u7b$$u7b$vtable.shim$u7d$$u7d$17hca22f9208485f70dE
	.quad	_ZN3std2rt10lang_start28_$u7b$$u7b$closure$u7d$$u7d$17he52e19aa637a2b4dE
	.quad	_ZN3std2rt10lang_start28_$u7b$$u7b$closure$u7d$$u7d$17he52e19aa637a2b4dE
	.size	.L__unnamed_1, 48

	.type	.L__unnamed_4,@object
	.section	.rodata..L__unnamed_4,"a",@progbits
.L__unnamed_4:
	.ascii	"Unimportant: "
	.size	.L__unnamed_4, 13

	.type	.L__unnamed_5,@object
	.section	.rodata..L__unnamed_5,"a",@progbits
.L__unnamed_5:
	.byte	10
	.size	.L__unnamed_5, 1

	.type	.L__unnamed_2,@object
	.section	.data.rel.ro..L__unnamed_2,"aw",@progbits
	.p2align	3, 0x0
.L__unnamed_2:
	.quad	.L__unnamed_4
	.asciz	"\r\000\000\000\000\000\000"
	.quad	.L__unnamed_5
	.asciz	"\001\000\000\000\000\000\000"
	.size	.L__unnamed_2, 32

	.type	.L__unnamed_6,@object
	.section	.rodata..L__unnamed_6,"a",@progbits
.L__unnamed_6:
	.ascii	"rtti: Time elapsed: "
	.size	.L__unnamed_6, 20

	.type	.L__unnamed_3,@object
	.section	.data.rel.ro..L__unnamed_3,"aw",@progbits
	.p2align	3, 0x0
.L__unnamed_3:
	.quad	.L__unnamed_6
	.asciz	"\024\000\000\000\000\000\000"
	.quad	.L__unnamed_5
	.asciz	"\001\000\000\000\000\000\000"
	.size	.L__unnamed_3, 32

	.ident	"rustc version 1.79.0-nightly (f9b161492 2024-04-19)"
	.section	".note.GNU-stack","",@progbits
